target datalayout = "e-m:e-p270:32:32-p271:32:32-p272:64:64-i64:64-i128:128-f80:128-n8:16:32:64-S128"
target triple = "x86_64-pc-linux-gnu"

%struct.slurmdb_cluster_rec = type { ptr, i16, i64, %struct.sockaddr_storage, ptr, i32, i16, ptr, i16, %struct.slurmdb_cluster_fed_t, i32, %union.pthread_mutex_t, ptr, ptr, ptr, i16, ptr, ptr }
%struct.sockaddr_storage = type { i16, [118 x i8], i64 }
%struct.slurmdb_cluster_fed_t = type { ptr, i32, ptr, ptr, ptr, i32, i8, i8 }
%union.pthread_mutex_t = type { %struct.__pthread_mutex_s }
%struct.__pthread_mutex_s = type { i32, i32, i32, i32, i32, i16, i16, %struct.__pthread_internal_list }
%struct.__pthread_internal_list = type { ptr, ptr }
%struct.slurmdb_assoc_rec = type { ptr, ptr, ptr, ptr, ptr, ptr, ptr, i32, i32, i32, i32, i32, ptr, ptr, ptr, ptr, ptr, ptr, i32, i32, i16, ptr, ptr, i32, i32, i32, ptr, ptr, ptr, ptr, ptr, ptr, ptr, ptr, i32, i32, ptr, i32, ptr, i32, ptr, i32, i32, ptr, ptr, ptr }

@.str.2 = private unnamed_addr constant [15 x i8] c"slurmdb_defs.c\00", align 1
@__func__.slurmdb_copy_cluster_rec = private unnamed_addr constant [25 x i8] c"slurmdb_copy_cluster_rec\00", align 1

; Function Attrs: nounwind uwtable
define dso_local void @slurmdb_init_assoc_rec(ptr noundef %0, i1 noundef zeroext %1) #0 {
  %3 = alloca ptr, align 8
  %4 = alloca i8, align 1
  store ptr %0, ptr %3, align 8
  %5 = zext i1 %1 to i8
  store i8 %5, ptr %4, align 1
  %6 = load ptr, ptr %3, align 8
  %7 = icmp ne ptr %6, null
  br i1 %7, label %9, label %8

8:                                                ; preds = %2
  br label %42

9:                                                ; preds = %2
  %10 = load i8, ptr %4, align 1, !range !12, !noundef !13
  %11 = trunc i8 %10 to i1
  br i1 %11, label %12, label %14

12:                                               ; preds = %9
  %13 = load ptr, ptr %3, align 8
  call void @slurmdb_free_assoc_rec_members(ptr noundef %13)
  br label %14

14:                                               ; preds = %12, %9
  %15 = load ptr, ptr %3, align 8
  call void @llvm.memset.p0.i64(ptr align 8 %15, i8 0, i64 320, i1 false)
  %16 = load ptr, ptr %3, align 8
  %17 = getelementptr inbounds nuw %struct.slurmdb_assoc_rec, ptr %16, i32 0, i32 7
  store i32 -2, ptr %17, align 8
  %18 = load ptr, ptr %3, align 8
  %19 = getelementptr inbounds nuw %struct.slurmdb_assoc_rec, ptr %18, i32 0, i32 20
  store i16 -2, ptr %19, align 8
  %20 = load ptr, ptr %3, align 8
  %21 = getelementptr inbounds nuw %struct.slurmdb_assoc_rec, ptr %20, i32 0, i32 9
  store i32 -2, ptr %21, align 8
  %22 = load ptr, ptr %3, align 8
  %23 = getelementptr inbounds nuw %struct.slurmdb_assoc_rec, ptr %22, i32 0, i32 10
  store i32 -2, ptr %23, align 4
  %24 = load ptr, ptr %3, align 8
  %25 = getelementptr inbounds nuw %struct.slurmdb_assoc_rec, ptr %24, i32 0, i32 11
  store i32 -2, ptr %25, align 8
  %26 = load ptr, ptr %3, align 8
  %27 = getelementptr inbounds nuw %struct.slurmdb_assoc_rec, ptr %26, i32 0, i32 18
  store i32 -2, ptr %27, align 8
  %28 = load ptr, ptr %3, align 8
  %29 = getelementptr inbounds nuw %struct.slurmdb_assoc_rec, ptr %28, i32 0, i32 23
  store i32 -2, ptr %29, align 8
  %30 = load ptr, ptr %3, align 8
  %31 = getelementptr inbounds nuw %struct.slurmdb_assoc_rec, ptr %30, i32 0, i32 24
  store i32 -2, ptr %31, align 4
  %32 = load ptr, ptr %3, align 8
  %33 = getelementptr inbounds nuw %struct.slurmdb_assoc_rec, ptr %32, i32 0, i32 35
  store i32 -2, ptr %33, align 4
  %34 = load ptr, ptr %3, align 8
  %35 = getelementptr inbounds nuw %struct.slurmdb_assoc_rec, ptr %34, i32 0, i32 25
  store i32 -2, ptr %35, align 8
  %36 = load ptr, ptr %3, align 8
  %37 = getelementptr inbounds nuw %struct.slurmdb_assoc_rec, ptr %36, i32 0, i32 34
  store i32 -2, ptr %37, align 8
  %38 = load ptr, ptr %3, align 8
  %39 = getelementptr inbounds nuw %struct.slurmdb_assoc_rec, ptr %38, i32 0, i32 39
  store i32 -2, ptr %39, align 8
  %40 = load ptr, ptr %3, align 8
  %41 = getelementptr inbounds nuw %struct.slurmdb_assoc_rec, ptr %40, i32 0, i32 41
  store i32 -2, ptr %41, align 8
  br label %42

42:                                               ; preds = %14, %8
  ret void
}

; Function Attrs: nounwind uwtable
define dso_local void @slurmdb_destroy_assoc_rec(ptr noundef %0) #0 {
  %2 = alloca ptr, align 8
  %3 = alloca ptr, align 8
  store ptr %0, ptr %2, align 8
  call void @llvm.lifetime.start.p0(i64 8, ptr %3) #10
  %4 = load ptr, ptr %2, align 8
  store ptr %4, ptr %3, align 8
  %5 = load ptr, ptr %3, align 8
  %6 = icmp ne ptr %5, null
  br i1 %6, label %7, label %9

7:                                                ; preds = %1
  %8 = load ptr, ptr %3, align 8
  call void @slurmdb_free_assoc_rec_members(ptr noundef %8)
  call void @slurm_xfree(ptr noundef %3)
  br label %9

9:                                                ; preds = %7, %1
  call void @llvm.lifetime.end.p0(i64 8, ptr %3) #10
  ret void
}

; Function Attrs: nounwind uwtable
define dso_local void @slurmdb_copy_cluster_rec(ptr noundef %0, ptr noundef %1) #0 {
  %3 = alloca ptr, align 8
  %4 = alloca ptr, align 8
  store ptr %0, ptr %3, align 8
  store ptr %1, ptr %4, align 8
  %5 = load ptr, ptr %4, align 8
  %6 = getelementptr inbounds nuw %struct.slurmdb_cluster_rec, ptr %5, i32 0, i32 1
  %7 = load i16, ptr %6, align 8
  %8 = load ptr, ptr %3, align 8
  %9 = getelementptr inbounds nuw %struct.slurmdb_cluster_rec, ptr %8, i32 0, i32 1
  store i16 %7, ptr %9, align 8
  %10 = load ptr, ptr %3, align 8
  %11 = getelementptr inbounds nuw %struct.slurmdb_cluster_rec, ptr %10, i32 0, i32 4
  call void @slurm_xfree(ptr noundef %11)
  %12 = load ptr, ptr %4, align 8
  %13 = getelementptr inbounds nuw %struct.slurmdb_cluster_rec, ptr %12, i32 0, i32 4
  %14 = load ptr, ptr %13, align 8
  %15 = call ptr @xstrdup(ptr noundef %14)
  %16 = load ptr, ptr %3, align 8
  %17 = getelementptr inbounds nuw %struct.slurmdb_cluster_rec, ptr %16, i32 0, i32 4
  store ptr %15, ptr %17, align 8
  %18 = load ptr, ptr %4, align 8
  %19 = getelementptr inbounds nuw %struct.slurmdb_cluster_rec, ptr %18, i32 0, i32 5
  %20 = load i32, ptr %19, align 8
  %21 = load ptr, ptr %3, align 8
  %22 = getelementptr inbounds nuw %struct.slurmdb_cluster_rec, ptr %21, i32 0, i32 5
  store i32 %20, ptr %22, align 8
  %23 = load ptr, ptr %4, align 8
  %24 = getelementptr inbounds nuw %struct.slurmdb_cluster_rec, ptr %23, i32 0, i32 6
  %25 = load i16, ptr %24, align 4
  %26 = load ptr, ptr %3, align 8
  %27 = getelementptr inbounds nuw %struct.slurmdb_cluster_rec, ptr %26, i32 0, i32 6
  store i16 %25, ptr %27, align 4
  %28 = load ptr, ptr %3, align 8
  %29 = getelementptr inbounds nuw %struct.slurmdb_cluster_rec, ptr %28, i32 0, i32 9
  %30 = getelementptr inbounds nuw %struct.slurmdb_cluster_fed_t, ptr %29, i32 0, i32 2
  call void @slurm_xfree(ptr noundef %30)
  %31 = load ptr, ptr %4, align 8
  %32 = getelementptr inbounds nuw %struct.slurmdb_cluster_rec, ptr %31, i32 0, i32 9
  %33 = getelementptr inbounds nuw %struct.slurmdb_cluster_fed_t, ptr %32, i32 0, i32 2
  %34 = load ptr, ptr %33, align 8
  %35 = call ptr @xstrdup(ptr noundef %34)
  %36 = load ptr, ptr %3, align 8
  %37 = getelementptr inbounds nuw %struct.slurmdb_cluster_rec, ptr %36, i32 0, i32 9
  %38 = getelementptr inbounds nuw %struct.slurmdb_cluster_fed_t, ptr %37, i32 0, i32 2
  store ptr %35, ptr %38, align 8
  %39 = load ptr, ptr %4, align 8
  %40 = getelementptr inbounds nuw %struct.slurmdb_cluster_rec, ptr %39, i32 0, i32 9
  %41 = getelementptr inbounds nuw %struct.slurmdb_cluster_fed_t, ptr %40, i32 0, i32 1
  %42 = load i32, ptr %41, align 8
  %43 = load ptr, ptr %3, align 8
  %44 = getelementptr inbounds nuw %struct.slurmdb_cluster_rec, ptr %43, i32 0, i32 9
  %45 = getelementptr inbounds nuw %struct.slurmdb_cluster_fed_t, ptr %44, i32 0, i32 1
  store i32 %42, ptr %45, align 8
  %46 = load ptr, ptr %4, align 8
  %47 = getelementptr inbounds nuw %struct.slurmdb_cluster_rec, ptr %46, i32 0, i32 9
  %48 = getelementptr inbounds nuw %struct.slurmdb_cluster_fed_t, ptr %47, i32 0, i32 5
  %49 = load i32, ptr %48, align 8
  %50 = load ptr, ptr %3, align 8
  %51 = getelementptr inbounds nuw %struct.slurmdb_cluster_rec, ptr %50, i32 0, i32 9
  %52 = getelementptr inbounds nuw %struct.slurmdb_cluster_fed_t, ptr %51, i32 0, i32 5
  store i32 %49, ptr %52, align 8
  %53 = load ptr, ptr %4, align 8
  %54 = getelementptr inbounds nuw %struct.slurmdb_cluster_rec, ptr %53, i32 0, i32 10
  %55 = load i32, ptr %54, align 8
  %56 = load ptr, ptr %3, align 8
  %57 = getelementptr inbounds nuw %struct.slurmdb_cluster_rec, ptr %56, i32 0, i32 10
  store i32 %55, ptr %57, align 8
  %58 = load ptr, ptr %3, align 8
  %59 = getelementptr inbounds nuw %struct.slurmdb_cluster_rec, ptr %58, i32 0, i32 12
  call void @slurm_xfree(ptr noundef %59)
  %60 = load ptr, ptr %4, align 8
  %61 = getelementptr inbounds nuw %struct.slurmdb_cluster_rec, ptr %60, i32 0, i32 12
  %62 = load ptr, ptr %61, align 8
  %63 = call ptr @xstrdup(ptr noundef %62)
  %64 = load ptr, ptr %3, align 8
  %65 = getelementptr inbounds nuw %struct.slurmdb_cluster_rec, ptr %64, i32 0, i32 12
  store ptr %63, ptr %65, align 8
  %66 = load ptr, ptr %3, align 8
  %67 = getelementptr inbounds nuw %struct.slurmdb_cluster_rec, ptr %66, i32 0, i32 13
  call void @slurm_xfree(ptr noundef %67)
  %68 = load ptr, ptr %4, align 8
  %69 = getelementptr inbounds nuw %struct.slurmdb_cluster_rec, ptr %68, i32 0, i32 13
  %70 = load ptr, ptr %69, align 8
  %71 = call ptr @xstrdup(ptr noundef %70)
  %72 = load ptr, ptr %3, align 8
  %73 = getelementptr inbounds nuw %struct.slurmdb_cluster_rec, ptr %72, i32 0, i32 13
  store ptr %71, ptr %73, align 8
  %74 = load ptr, ptr %4, align 8
  %75 = getelementptr inbounds nuw %struct.slurmdb_cluster_rec, ptr %74, i32 0, i32 15
  %76 = load i16, ptr %75, align 8
  %77 = load ptr, ptr %3, align 8
  %78 = getelementptr inbounds nuw %struct.slurmdb_cluster_rec, ptr %77, i32 0, i32 15
  store i16 %76, ptr %78, align 8
  %79 = load ptr, ptr %3, align 8
  %80 = getelementptr inbounds nuw %struct.slurmdb_cluster_rec, ptr %79, i32 0, i32 17
  call void @slurm_xfree(ptr noundef %80)
  %81 = load ptr, ptr %4, align 8
  %82 = getelementptr inbounds nuw %struct.slurmdb_cluster_rec, ptr %81, i32 0, i32 17
  %83 = load ptr, ptr %82, align 8
  %84 = call ptr @xstrdup(ptr noundef %83)
  %85 = load ptr, ptr %3, align 8
  %86 = getelementptr inbounds nuw %struct.slurmdb_cluster_rec, ptr %85, i32 0, i32 17
  store ptr %84, ptr %86, align 8
  %87 = load ptr, ptr %3, align 8
  %88 = getelementptr inbounds nuw %struct.slurmdb_cluster_rec, ptr %87, i32 0, i32 14
  %89 = load ptr, ptr %88, align 8
  call void @slurmdb_destroy_assoc_rec(ptr noundef %89)
  %90 = load ptr, ptr %4, align 8
  %91 = getelementptr inbounds nuw %struct.slurmdb_cluster_rec, ptr %90, i32 0, i32 14
  %92 = load ptr, ptr %91, align 8
  %93 = icmp ne ptr %92, null
  br i1 %93, label %94, label %107

94:                                               ; preds = %2
  %95 = call ptr @slurm_xcalloc(i64 noundef 1, i64 noundef 320, i1 noundef zeroext true, i1 noundef zeroext false, ptr noundef @.str.2, i32 noundef 3599, ptr noundef @__func__.slurmdb_copy_cluster_rec)
  %96 = load ptr, ptr %3, align 8
  %97 = getelementptr inbounds nuw %struct.slurmdb_cluster_rec, ptr %96, i32 0, i32 14
  store ptr %95, ptr %97, align 8
  %98 = load ptr, ptr %3, align 8
  %99 = getelementptr inbounds nuw %struct.slurmdb_cluster_rec, ptr %98, i32 0, i32 14
  %100 = load ptr, ptr %99, align 8
  call void @slurmdb_init_assoc_rec(ptr noundef %100, i1 noundef zeroext false)
  %101 = load ptr, ptr %3, align 8
  %102 = getelementptr inbounds nuw %struct.slurmdb_cluster_rec, ptr %101, i32 0, i32 14
  %103 = load ptr, ptr %102, align 8
  %104 = load ptr, ptr %4, align 8
  %105 = getelementptr inbounds nuw %struct.slurmdb_cluster_rec, ptr %104, i32 0, i32 14
  %106 = load ptr, ptr %105, align 8
  call void @slurmdb_copy_assoc_rec_limits(ptr noundef %103, ptr noundef %106)
  br label %107

107:                                              ; preds = %94, %2
  br label %108

108:                                              ; preds = %107
  %109 = load ptr, ptr %3, align 8
  %110 = getelementptr inbounds nuw %struct.slurmdb_cluster_rec, ptr %109, i32 0, i32 9
  %111 = getelementptr inbounds nuw %struct.slurmdb_cluster_fed_t, ptr %110, i32 0, i32 0
  %112 = load ptr, ptr %111, align 8
  %113 = icmp ne ptr %112, null
  br i1 %113, label %114, label %119

114:                                              ; preds = %108
  %115 = load ptr, ptr %3, align 8
  %116 = getelementptr inbounds nuw %struct.slurmdb_cluster_rec, ptr %115, i32 0, i32 9
  %117 = getelementptr inbounds nuw %struct.slurmdb_cluster_fed_t, ptr %116, i32 0, i32 0
  %118 = load ptr, ptr %117, align 8
  call void @list_destroy(ptr noundef %118)
  br label %119

119:                                              ; preds = %114, %108
  %120 = load ptr, ptr %3, align 8
  %121 = getelementptr inbounds nuw %struct.slurmdb_cluster_rec, ptr %120, i32 0, i32 9
  %122 = getelementptr inbounds nuw %struct.slurmdb_cluster_fed_t, ptr %121, i32 0, i32 0
  store ptr null, ptr %122, align 8
  br label %123

123:                                              ; preds = %119
  %124 = load ptr, ptr %4, align 8
  %125 = getelementptr inbounds nuw %struct.slurmdb_cluster_rec, ptr %124, i32 0, i32 9
  %126 = getelementptr inbounds nuw %struct.slurmdb_cluster_fed_t, ptr %125, i32 0, i32 0
  %127 = load ptr, ptr %126, align 8
  %128 = icmp ne ptr %127, null
  br i1 %128, label %129, label %143

129:                                              ; preds = %123
  %130 = call ptr @list_create(ptr noundef @xfree_ptr)
  %131 = load ptr, ptr %3, align 8
  %132 = getelementptr inbounds nuw %struct.slurmdb_cluster_rec, ptr %131, i32 0, i32 9
  %133 = getelementptr inbounds nuw %struct.slurmdb_cluster_fed_t, ptr %132, i32 0, i32 0
  store ptr %130, ptr %133, align 8
  %134 = load ptr, ptr %3, align 8
  %135 = getelementptr inbounds nuw %struct.slurmdb_cluster_rec, ptr %134, i32 0, i32 9
  %136 = getelementptr inbounds nuw %struct.slurmdb_cluster_fed_t, ptr %135, i32 0, i32 0
  %137 = load ptr, ptr %136, align 8
  %138 = load ptr, ptr %4, align 8
  %139 = getelementptr inbounds nuw %struct.slurmdb_cluster_rec, ptr %138, i32 0, i32 9
  %140 = getelementptr inbounds nuw %struct.slurmdb_cluster_fed_t, ptr %139, i32 0, i32 0
  %141 = load ptr, ptr %140, align 8
  %142 = call i32 @slurm_char_list_copy(ptr noundef %137, ptr noundef %141)
  br label %143

143:                                              ; preds = %129, %123
  ret void
}