; Function Attrs: nounwind uwtable
define dso_local void @slurmdb_copy_cluster_rec(ptr noundef initializes((8, 10)) %0, ptr noundef readonly captures(none) %1) local_unnamed_addr #0 {
  %3 = alloca ptr, align 8
  %4 = getelementptr inbounds nuw i8, ptr %1, i64 8
  %5 = load i16, ptr %4, align 8
  %6 = getelementptr inbounds nuw i8, ptr %0, i64 8
  store i16 %5, ptr %6, align 8
  %7 = getelementptr inbounds nuw i8, ptr %0, i64 152
  tail call void @slurm_xfree(ptr noundef nonnull %7) #19
  %8 = getelementptr inbounds nuw i8, ptr %1, i64 152
  %9 = load ptr, ptr %8, align 8
  %10 = tail call ptr @xstrdup(ptr noundef %9) #19
  store ptr %10, ptr %7, align 8
  %11 = getelementptr inbounds nuw i8, ptr %1, i64 160
  %12 = load i32, ptr %11, align 8
  %13 = getelementptr inbounds nuw i8, ptr %0, i64 160
  store i32 %12, ptr %13, align 8
  %14 = getelementptr inbounds nuw i8, ptr %1, i64 164
  %15 = load i16, ptr %14, align 4
  %16 = getelementptr inbounds nuw i8, ptr %0, i64 164
  store i16 %15, ptr %16, align 4
  %17 = getelementptr inbounds nuw i8, ptr %0, i64 184
  %18 = getelementptr inbounds nuw i8, ptr %0, i64 200
  tail call void @slurm_xfree(ptr noundef nonnull %18) #19
  %19 = getelementptr inbounds nuw i8, ptr %1, i64 184
  %20 = getelementptr inbounds nuw i8, ptr %1, i64 200
  %21 = load ptr, ptr %20, align 8
  %22 = tail call ptr @xstrdup(ptr noundef %21) #19
  store ptr %22, ptr %18, align 8
  %23 = getelementptr inbounds nuw i8, ptr %1, i64 192
  %24 = load i32, ptr %23, align 8
  %25 = getelementptr inbounds nuw i8, ptr %0, i64 192
  store i32 %24, ptr %25, align 8
  %26 = getelementptr inbounds nuw i8, ptr %1, i64 224
  %27 = load i32, ptr %26, align 8
  %28 = getelementptr inbounds nuw i8, ptr %0, i64 224
  store i32 %27, ptr %28, align 8
  %29 = getelementptr inbounds nuw i8, ptr %1, i64 232
  %30 = load i32, ptr %29, align 8
  %31 = getelementptr inbounds nuw i8, ptr %0, i64 232
  store i32 %30, ptr %31, align 8
  %32 = getelementptr inbounds nuw i8, ptr %0, i64 280
  tail call void @slurm_xfree(ptr noundef nonnull %32) #19
  %33 = getelementptr inbounds nuw i8, ptr %1, i64 280
  %34 = load ptr, ptr %33, align 8
  %35 = tail call ptr @xstrdup(ptr noundef %34) #19
  store ptr %35, ptr %32, align 8
  %36 = getelementptr inbounds nuw i8, ptr %0, i64 288
  tail call void @slurm_xfree(ptr noundef nonnull %36) #19
  %37 = getelementptr inbounds nuw i8, ptr %1, i64 288
  %38 = load ptr, ptr %37, align 8
  %39 = tail call ptr @xstrdup(ptr noundef %38) #19
  store ptr %39, ptr %36, align 8
  %40 = getelementptr inbounds nuw i8, ptr %1, i64 304
  %41 = load i16, ptr %40, align 8
  %42 = getelementptr inbounds nuw i8, ptr %0, i64 304
  store i16 %41, ptr %42, align 8
  %43 = getelementptr inbounds nuw i8, ptr %0, i64 320
  tail call void @slurm_xfree(ptr noundef nonnull %43) #19
  %44 = getelementptr inbounds nuw i8, ptr %1, i64 320
  %45 = load ptr, ptr %44, align 8
  %46 = tail call ptr @xstrdup(ptr noundef %45) #19
  store ptr %46, ptr %43, align 8
  %47 = getelementptr inbounds nuw i8, ptr %0, i64 296
  %48 = load ptr, ptr %47, align 8
  call void @llvm.lifetime.start.p0(i64 8, ptr nonnull %3) #19
  store ptr %48, ptr %3, align 8
  %.not.i = icmp eq ptr %48, null
  br i1 %.not.i, label %slurmdb_destroy_assoc_rec.exit, label %49

49:                                               ; preds = %2
  tail call void @slurmdb_free_assoc_rec_members(ptr noundef nonnull %48)
  call void @slurm_xfree(ptr noundef nonnull %3) #19
  br label %slurmdb_destroy_assoc_rec.exit

slurmdb_destroy_assoc_rec.exit:                   ; preds = %2, %49
  call void @llvm.lifetime.end.p0(i64 8, ptr nonnull %3) #19
  %50 = getelementptr inbounds nuw i8, ptr %1, i64 296
  %51 = load ptr, ptr %50, align 8
  %.not = icmp eq ptr %51, null
  br i1 %.not, label %70, label %52

52:                                               ; preds = %slurmdb_destroy_assoc_rec.exit
  %53 = call ptr @slurm_xcalloc(i64 noundef 1, i64 noundef 320, i1 noundef zeroext true, i1 noundef zeroext false, ptr noundef nonnull @.str.2, i32 noundef 3599, ptr noundef nonnull @__func__.slurmdb_copy_cluster_rec) #19
  store ptr %53, ptr %47, align 8
  %.not.i44 = icmp eq ptr %53, null
  br i1 %.not.i44, label %slurmdb_init_assoc_rec.exit, label %54

54:                                               ; preds = %52
  call void @llvm.memset.p0.i64(ptr noundef nonnull align 8 dereferenceable(320) %53, i8 0, i64 320, i1 false)
  %55 = getelementptr inbounds nuw i8, ptr %53, i64 56
  store i32 -2, ptr %55, align 8
  %56 = getelementptr inbounds nuw i8, ptr %53, i64 136
  store i16 -2, ptr %56, align 8
  %57 = getelementptr inbounds nuw i8, ptr %53, i64 64
  store i32 -2, ptr %57, align 8
  %58 = getelementptr inbounds nuw i8, ptr %53, i64 68
  store i32 -2, ptr %58, align 4
  %59 = getelementptr inbounds nuw i8, ptr %53, i64 72
  store i32 -2, ptr %59, align 8
  %60 = getelementptr inbounds nuw i8, ptr %53, i64 128
  store i32 -2, ptr %60, align 8
  %61 = getelementptr inbounds nuw i8, ptr %53, i64 160
  store i32 -2, ptr %61, align 8
  %62 = getelementptr inbounds nuw i8, ptr %53, i64 164
  store i32 -2, ptr %62, align 4
  %63 = getelementptr inbounds nuw i8, ptr %53, i64 244
  store i32 -2, ptr %63, align 4
  %64 = getelementptr inbounds nuw i8, ptr %53, i64 168
  store i32 -2, ptr %64, align 8
  %65 = getelementptr inbounds nuw i8, ptr %53, i64 240
  store i32 -2, ptr %65, align 8
  %66 = getelementptr inbounds nuw i8, ptr %53, i64 272
  store i32 -2, ptr %66, align 8
  %67 = getelementptr inbounds nuw i8, ptr %53, i64 288
  store i32 -2, ptr %67, align 8
  %.pre = load ptr, ptr %47, align 8
  br label %slurmdb_init_assoc_rec.exit

slurmdb_init_assoc_rec.exit:                      ; preds = %52, %54
  %68 = phi ptr [ null, %52 ], [ %.pre, %54 ]
  %69 = load ptr, ptr %50, align 8
  call void @slurmdb_copy_assoc_rec_limits(ptr noundef %68, ptr noundef %69)
  br label %70

70:                                               ; preds = %slurmdb_destroy_assoc_rec.exit, %slurmdb_init_assoc_rec.exit
  %71 = load ptr, ptr %17, align 8
  %.not42 = icmp eq ptr %71, null
  br i1 %.not42, label %73, label %72

72:                                               ; preds = %70
  call void @list_destroy(ptr noundef nonnull %71) #19
  br label %73

73:                                               ; preds = %72, %70
  store ptr null, ptr %17, align 8
  %74 = load ptr, ptr %19, align 8
  %.not43 = icmp eq ptr %74, null
  br i1 %.not43, label %79, label %75

75:                                               ; preds = %73
  %76 = call ptr @list_create(ptr noundef nonnull @xfree_ptr) #19
  store ptr %76, ptr %17, align 8
  %77 = load ptr, ptr %19, align 8
  %78 = call i32 @slurm_char_list_copy(ptr noundef %76, ptr noundef %77) #19
  br label %79

79:                                               ; preds = %75, %73
  ret void
}